target datalayout = "e-m:e-p270:32:32-p271:32:32-p272:64:64-i64:64-i128:128-f80:128-n8:16:32:64-S128"
target triple = "x86_64-pc-linux-gnu"

%struct.lua_TValue = type { %union.Value, [1 x i32], i32 }
%union.Value = type { ptr }
%struct.LuaTable = type { i8, i8, i8, i8, i8, i8, i8, i8, i32, %union.anon, ptr, ptr, ptr, ptr }
%union.anon = type { i32 }
%struct.lua_State = type { i8, i8, i8, i8, i8, i8, i8, ptr, ptr, ptr, ptr, ptr, ptr, ptr, ptr, i32, i32, i16, i16, i32, ptr, ptr, ptr, ptr, ptr }
%struct.global_State = type { %struct.stringtable, ptr, ptr, i8, i8, ptr, ptr, ptr, i64, i64, i32, i32, i32, [40 x ptr], [40 x ptr], ptr, ptr, ptr, [256 x i64], ptr, %struct.UpVal, [11 x ptr], [11 x ptr], [21 x ptr], %struct.lua_TValue, %struct.lua_TValue, i32, ptr, i64, [4 x i64], %struct.lua_Callbacks, %struct.lua_ExecutionCallbacks, [128 x ptr], [128 x ptr], [128 x ptr], %struct.GCStats }
%struct.stringtable = type { ptr, i32, i32 }
%struct.UpVal = type { i8, i8, i8, i8, ptr, %union.anon.0 }
%union.anon.0 = type { %struct.anon }
%struct.anon = type { ptr, ptr, ptr }
%struct.lua_Callbacks = type { ptr, ptr, ptr, ptr, ptr, ptr, ptr, ptr, ptr, ptr }
%struct.lua_ExecutionCallbacks = type { ptr, ptr, ptr, ptr, ptr, ptr, ptr }
%struct.GCStats = type { [32 x i32], i32, i32, i64, i64, i64, double, double, double }

@luaH_dummynode = dso_local constant { %struct.lua_TValue, { %union.Value, [1 x i32], i8, i8, i8, i8 } } zeroinitializer, align 8

; Function Attrs: mustprogress uwtable
define hidden noundef ptr @_Z10luaH_cloneP9lua_StateP8LuaTable(ptr noundef %0, ptr noundef %1) #0 {
  %3 = alloca ptr, align 8
  %4 = alloca ptr, align 8
  %5 = alloca ptr, align 8
  %6 = alloca i32, align 4
  store ptr %0, ptr %3, align 8, !tbaa !4
  store ptr %1, ptr %4, align 8, !tbaa !9
  call void @llvm.lifetime.start.p0(i64 8, ptr %5) #7
  %7 = load ptr, ptr %3, align 8, !tbaa !4
  %8 = load ptr, ptr %3, align 8, !tbaa !4
  %9 = getelementptr inbounds nuw %struct.lua_State, ptr %8, i32 0, i32 4
  %10 = load i8, ptr %9, align 4, !tbaa !43
  %11 = call noundef ptr @_Z12luaM_newgco_P9lua_Statemh(ptr noundef %7, i64 noundef 48, i8 noundef zeroext %10)
  store ptr %11, ptr %5, align 8, !tbaa !9
  %12 = load ptr, ptr %3, align 8, !tbaa !4
  %13 = getelementptr inbounds nuw %struct.lua_State, ptr %12, i32 0, i32 9
  %14 = load ptr, ptr %13, align 8, !tbaa !50
  %15 = getelementptr inbounds nuw %struct.global_State, ptr %14, i32 0, i32 3
  %16 = load i8, ptr %15, align 8, !tbaa !51
  %17 = zext i8 %16 to i32
  %18 = and i32 %17, 3
  %19 = trunc i32 %18 to i8
  %20 = load ptr, ptr %5, align 8, !tbaa !9
  %21 = getelementptr inbounds nuw %struct.LuaTable, ptr %20, i32 0, i32 1
  store i8 %19, ptr %21, align 1, !tbaa !64
  %22 = load ptr, ptr %5, align 8, !tbaa !9
  %23 = getelementptr inbounds nuw %struct.LuaTable, ptr %22, i32 0, i32 0
  store i8 6, ptr %23, align 8, !tbaa !65
  %24 = load ptr, ptr %3, align 8, !tbaa !4
  %25 = getelementptr inbounds nuw %struct.lua_State, ptr %24, i32 0, i32 4
  %26 = load i8, ptr %25, align 4, !tbaa !43
  %27 = load ptr, ptr %5, align 8, !tbaa !9
  %28 = getelementptr inbounds nuw %struct.LuaTable, ptr %27, i32 0, i32 2
  store i8 %26, ptr %28, align 2, !tbaa !41
  %29 = load ptr, ptr %4, align 8, !tbaa !9
  %30 = getelementptr inbounds nuw %struct.LuaTable, ptr %29, i32 0, i32 10
  %31 = load ptr, ptr %30, align 8, !tbaa !66
  %32 = load ptr, ptr %5, align 8, !tbaa !9
  %33 = getelementptr inbounds nuw %struct.LuaTable, ptr %32, i32 0, i32 10
  store ptr %31, ptr %33, align 8, !tbaa !66
  %34 = load ptr, ptr %4, align 8, !tbaa !9
  %35 = getelementptr inbounds nuw %struct.LuaTable, ptr %34, i32 0, i32 3
  %36 = load i8, ptr %35, align 1, !tbaa !67
  %37 = load ptr, ptr %5, align 8, !tbaa !9
  %38 = getelementptr inbounds nuw %struct.LuaTable, ptr %37, i32 0, i32 3
  store i8 %36, ptr %38, align 1, !tbaa !67
  %39 = load ptr, ptr %5, align 8, !tbaa !9
  %40 = getelementptr inbounds nuw %struct.LuaTable, ptr %39, i32 0, i32 11
  store ptr null, ptr %40, align 8, !tbaa !19
  %41 = load ptr, ptr %5, align 8, !tbaa !9
  %42 = getelementptr inbounds nuw %struct.LuaTable, ptr %41, i32 0, i32 8
  store i32 0, ptr %42, align 8, !tbaa !15
  %43 = load ptr, ptr %5, align 8, !tbaa !9
  %44 = getelementptr inbounds nuw %struct.LuaTable, ptr %43, i32 0, i32 6
  store i8 0, ptr %44, align 2, !tbaa !26
  %45 = load ptr, ptr %5, align 8, !tbaa !9
  %46 = getelementptr inbounds nuw %struct.LuaTable, ptr %45, i32 0, i32 7
  store i8 0, ptr %46, align 1, !tbaa !70
  %47 = load ptr, ptr %5, align 8, !tbaa !9
  %48 = getelementptr inbounds nuw %struct.LuaTable, ptr %47, i32 0, i32 4
  store i8 0, ptr %48, align 4, !tbaa !68
  %49 = load ptr, ptr %5, align 8, !tbaa !9
  %50 = getelementptr inbounds nuw %struct.LuaTable, ptr %49, i32 0, i32 5
  store i8 0, ptr %50, align 1, !tbaa !69
  %51 = load ptr, ptr %5, align 8, !tbaa !9
  %52 = getelementptr inbounds nuw %struct.LuaTable, ptr %51, i32 0, i32 12
  store ptr @luaH_dummynode, ptr %52, align 8, !tbaa !27
  %53 = load ptr, ptr %5, align 8, !tbaa !9
  %54 = getelementptr inbounds nuw %struct.LuaTable, ptr %53, i32 0, i32 9
  store i32 0, ptr %54, align 4, !tbaa !22
  %55 = load ptr, ptr %4, align 8, !tbaa !9
  %56 = getelementptr inbounds nuw %struct.LuaTable, ptr %55, i32 0, i32 8
  %57 = load i32, ptr %56, align 8, !tbaa !15
  %58 = icmp ne i32 %57, 0
  br i1 %58, label %59, label %123

59:                                               ; preds = %2
  %60 = load ptr, ptr %3, align 8, !tbaa !4
  %61 = load ptr, ptr %4, align 8, !tbaa !9
  %62 = getelementptr inbounds nuw %struct.LuaTable, ptr %61, i32 0, i32 8
  %63 = load i32, ptr %62, align 8, !tbaa !15
  %64 = sext i32 %63 to i64
  %65 = icmp ule i64 %64, 1152921504606846975
  br i1 %65, label %66, label %72

66:                                               ; preds = %59
  %67 = load ptr, ptr %4, align 8, !tbaa !9
  %68 = getelementptr inbounds nuw %struct.LuaTable, ptr %67, i32 0, i32 8
  %69 = load i32, ptr %68, align 8, !tbaa !15
  %70 = sext i32 %69 to i64
  %71 = mul i64 %70, 16
  br label %75

72:                                               ; preds = %59
  %73 = load ptr, ptr %3, align 8, !tbaa !4
  call void @_Z11luaM_toobigP9lua_State(ptr noundef %73) #8
  unreachable

74:                                               ; No predecessors!
  br label %75

75:                                               ; preds = %74, %66
  %76 = phi i64 [ %71, %66 ], [ -1, %74 ]
  %77 = load ptr, ptr %5, align 8, !tbaa !9
  %78 = getelementptr inbounds nuw %struct.LuaTable, ptr %77, i32 0, i32 2
  %79 = load i8, ptr %78, align 2, !tbaa !41
  %80 = call noundef ptr @_Z9luaM_new_P9lua_Statemh(ptr noundef %60, i64 noundef %76, i8 noundef zeroext %79)
  %81 = load ptr, ptr %5, align 8, !tbaa !9
  %82 = getelementptr inbounds nuw %struct.LuaTable, ptr %81, i32 0, i32 11
  store ptr %80, ptr %82, align 8, !tbaa !19
  %83 = load ptr, ptr %5, align 8, !tbaa !9
  %84 = getelementptr inbounds nuw %struct.LuaTable, ptr %83, i32 0, i32 9
  %85 = load i32, ptr %84, align 4, !tbaa !22
  %86 = icmp sle i32 %85, 0
  br i1 %86, label %87, label %106

87:                                               ; preds = %75
  %88 = load ptr, ptr %4, align 8, !tbaa !9
  %89 = getelementptr inbounds nuw %struct.LuaTable, ptr %88, i32 0, i32 9
  %90 = load i32, ptr %89, align 4, !tbaa !22
  %91 = icmp slt i32 %90, 0
  br i1 %91, label %92, label %97

92:                                               ; preds = %87
  %93 = load ptr, ptr %4, align 8, !tbaa !9
  %94 = getelementptr inbounds nuw %struct.LuaTable, ptr %93, i32 0, i32 9
  %95 = load i32, ptr %94, align 4, !tbaa !22
  %96 = sub nsw i32 0, %95
  br label %101

97:                                               ; preds = %87
  %98 = load ptr, ptr %4, align 8, !tbaa !9
  %99 = getelementptr inbounds nuw %struct.LuaTable, ptr %98, i32 0, i32 8
  %100 = load i32, ptr %99, align 8, !tbaa !15
  br label %101

101:                                              ; preds = %97, %92
  %102 = phi i32 [ %96, %92 ], [ %100, %97 ]
  %103 = sub nsw i32 0, %102
  %104 = load ptr, ptr %5, align 8, !tbaa !9
  %105 = getelementptr inbounds nuw %struct.LuaTable, ptr %104, i32 0, i32 9
  store i32 %103, ptr %105, align 4, !tbaa !22
  br label %106

106:                                              ; preds = %101, %75
  %107 = load ptr, ptr %4, align 8, !tbaa !9
  %108 = getelementptr inbounds nuw %struct.LuaTable, ptr %107, i32 0, i32 8
  %109 = load i32, ptr %108, align 8, !tbaa !15
  %110 = load ptr, ptr %5, align 8, !tbaa !9
  %111 = getelementptr inbounds nuw %struct.LuaTable, ptr %110, i32 0, i32 8
  store i32 %109, ptr %111, align 8, !tbaa !15
  %112 = load ptr, ptr %5, align 8, !tbaa !9
  %113 = getelementptr inbounds nuw %struct.LuaTable, ptr %112, i32 0, i32 11
  %114 = load ptr, ptr %113, align 8, !tbaa !19
  %115 = load ptr, ptr %4, align 8, !tbaa !9
  %116 = getelementptr inbounds nuw %struct.LuaTable, ptr %115, i32 0, i32 11
  %117 = load ptr, ptr %116, align 8, !tbaa !19
  %118 = load ptr, ptr %5, align 8, !tbaa !9
  %119 = getelementptr inbounds nuw %struct.LuaTable, ptr %118, i32 0, i32 8
  %120 = load i32, ptr %119, align 8, !tbaa !15
  %121 = sext i32 %120 to i64
  %122 = mul i64 %121, 16
  call void @llvm.memcpy.p0.p0.i64(ptr align 8 %114, ptr align 8 %117, i64 %122, i1 false)
  br label %123

123:                                              ; preds = %106, %2
  %124 = load ptr, ptr %4, align 8, !tbaa !9
  %125 = getelementptr inbounds nuw %struct.LuaTable, ptr %124, i32 0, i32 12
  %126 = load ptr, ptr %125, align 8, !tbaa !27
  %127 = icmp ne ptr %126, @luaH_dummynode
  br i1 %127, label %128, label %177

128:                                              ; preds = %123
  call void @llvm.lifetime.start.p0(i64 4, ptr %6) #7
  %129 = load ptr, ptr %4, align 8, !tbaa !9
  %130 = getelementptr inbounds nuw %struct.LuaTable, ptr %129, i32 0, i32 6
  %131 = load i8, ptr %130, align 2, !tbaa !26
  %132 = zext i8 %131 to i32
  %133 = shl i32 1, %132
  store i32 %133, ptr %6, align 4, !tbaa !13
  %134 = load ptr, ptr %3, align 8, !tbaa !4
  %135 = load i32, ptr %6, align 4, !tbaa !13
  %136 = sext i32 %135 to i64
  %137 = icmp ule i64 %136, 576460752303423487
  br i1 %137, label %138, label %142

138:                                              ; preds = %128
  %139 = load i32, ptr %6, align 4, !tbaa !13
  %140 = sext i32 %139 to i64
  %141 = mul i64 %140, 32
  br label %145

142:                                              ; preds = %128
  %143 = load ptr, ptr %3, align 8, !tbaa !4
  call void @_Z11luaM_toobigP9lua_State(ptr noundef %143) #8
  unreachable

144:                                              ; No predecessors!
  br label %145

145:                                              ; preds = %144, %138
  %146 = phi i64 [ %141, %138 ], [ -1, %144 ]
  %147 = load ptr, ptr %5, align 8, !tbaa !9
  %148 = getelementptr inbounds nuw %struct.LuaTable, ptr %147, i32 0, i32 2
  %149 = load i8, ptr %148, align 2, !tbaa !41
  %150 = call noundef ptr @_Z9luaM_new_P9lua_Statemh(ptr noundef %134, i64 noundef %146, i8 noundef zeroext %149)
  %151 = load ptr, ptr %5, align 8, !tbaa !9
  %152 = getelementptr inbounds nuw %struct.LuaTable, ptr %151, i32 0, i32 12
  store ptr %150, ptr %152, align 8, !tbaa !27
  %153 = load ptr, ptr %4, align 8, !tbaa !9
  %154 = getelementptr inbounds nuw %struct.LuaTable, ptr %153, i32 0, i32 6
  %155 = load i8, ptr %154, align 2, !tbaa !26
  %156 = load ptr, ptr %5, align 8, !tbaa !9
  %157 = getelementptr inbounds nuw %struct.LuaTable, ptr %156, i32 0, i32 6
  store i8 %155, ptr %157, align 2, !tbaa !26
  %158 = load ptr, ptr %4, align 8, !tbaa !9
  %159 = getelementptr inbounds nuw %struct.LuaTable, ptr %158, i32 0, i32 7
  %160 = load i8, ptr %159, align 1, !tbaa !70
  %161 = load ptr, ptr %5, align 8, !tbaa !9
  %162 = getelementptr inbounds nuw %struct.LuaTable, ptr %161, i32 0, i32 7
  store i8 %160, ptr %162, align 1, !tbaa !70
  %163 = load ptr, ptr %5, align 8, !tbaa !9
  %164 = getelementptr inbounds nuw %struct.LuaTable, ptr %163, i32 0, i32 12
  %165 = load ptr, ptr %164, align 8, !tbaa !27
  %166 = load ptr, ptr %4, align 8, !tbaa !9
  %167 = getelementptr inbounds nuw %struct.LuaTable, ptr %166, i32 0, i32 12
  %168 = load ptr, ptr %167, align 8, !tbaa !27
  %169 = load i32, ptr %6, align 4, !tbaa !13
  %170 = sext i32 %169 to i64
  %171 = mul i64 %170, 32
  call void @llvm.memcpy.p0.p0.i64(ptr align 8 %165, ptr align 8 %168, i64 %171, i1 false)
  %172 = load ptr, ptr %4, align 8, !tbaa !9
  %173 = getelementptr inbounds nuw %struct.LuaTable, ptr %172, i32 0, i32 9
  %174 = load i32, ptr %173, align 4, !tbaa !22
  %175 = load ptr, ptr %5, align 8, !tbaa !9
  %176 = getelementptr inbounds nuw %struct.LuaTable, ptr %175, i32 0, i32 9
  store i32 %174, ptr %176, align 4, !tbaa !22
  call void @llvm.lifetime.end.p0(i64 4, ptr %6) #7
  br label %177

177:                                              ; preds = %145, %123
  %178 = load ptr, ptr %5, align 8, !tbaa !9
  call void @llvm.lifetime.end.p0(i64 8, ptr %5) #7
  ret ptr %178
}