; Function Attrs: mustprogress uwtable
define hidden noundef ptr @_Z10luaH_cloneP9lua_StateP8LuaTable(ptr noundef %0, ptr noundef readonly captures(none) %1) local_unnamed_addr #0 {
  %3 = getelementptr inbounds nuw i8, ptr %0, i64 4
  %4 = load i8, ptr %3, align 4, !tbaa !37
  %5 = tail call noundef ptr @_Z12luaM_newgco_P9lua_Statemh(ptr noundef %0, i64 noundef 48, i8 noundef zeroext %4)
  %6 = getelementptr inbounds nuw i8, ptr %0, i64 24
  %7 = load ptr, ptr %6, align 8, !tbaa !45
  %8 = getelementptr inbounds nuw i8, ptr %7, i64 32
  %9 = load i8, ptr %8, align 8, !tbaa !46
  %10 = and i8 %9, 3
  %11 = getelementptr inbounds nuw i8, ptr %5, i64 1
  store i8 %10, ptr %11, align 1, !tbaa !60
  store i8 6, ptr %5, align 8, !tbaa !61
  %12 = load i8, ptr %3, align 4, !tbaa !37
  %13 = getelementptr inbounds nuw i8, ptr %5, i64 2
  store i8 %12, ptr %13, align 2, !tbaa !29
  %14 = getelementptr inbounds nuw i8, ptr %1, i64 16
  %15 = load ptr, ptr %14, align 8, !tbaa !62
  %16 = getelementptr inbounds nuw i8, ptr %5, i64 16
  store ptr %15, ptr %16, align 8, !tbaa !62
  %17 = getelementptr inbounds nuw i8, ptr %1, i64 3
  %18 = load i8, ptr %17, align 1, !tbaa !63
  %19 = getelementptr inbounds nuw i8, ptr %5, i64 3
  store i8 %18, ptr %19, align 1, !tbaa !63
  %20 = getelementptr inbounds nuw i8, ptr %5, i64 24
  store ptr null, ptr %20, align 8, !tbaa !20
  %21 = getelementptr inbounds nuw i8, ptr %5, i64 8
  %22 = getelementptr inbounds nuw i8, ptr %5, i64 6
  %23 = getelementptr inbounds nuw i8, ptr %5, i64 7
  %24 = getelementptr inbounds nuw i8, ptr %5, i64 4
  %25 = getelementptr inbounds nuw i8, ptr %5, i64 32
  store i64 0, ptr %24, align 4
  store ptr @luaH_dummynode, ptr %25, align 8, !tbaa !17
  %26 = getelementptr inbounds nuw i8, ptr %5, i64 12
  store i32 0, ptr %26, align 4, !tbaa !16
  %27 = getelementptr inbounds nuw i8, ptr %1, i64 8
  %28 = load i32, ptr %27, align 8, !tbaa !9
  %.not = icmp eq i32 %28, 0
  br i1 %.not, label %55, label %29

29:                                               ; preds = %2
  %30 = icmp sgt i32 %28, -1
  br i1 %30, label %31, label %37

31:                                               ; preds = %29
  %32 = zext nneg i32 %28 to i64
  %33 = shl nuw nsw i64 %32, 4
  %34 = tail call noundef ptr @_Z9luaM_new_P9lua_Statemh(ptr noundef nonnull %0, i64 noundef %33, i8 noundef zeroext %12)
  store ptr %34, ptr %20, align 8, !tbaa !20
  %35 = load i32, ptr %26, align 4, !tbaa !16
  %36 = icmp slt i32 %35, 1
  br i1 %36, label %38, label %49

37:                                               ; preds = %29
  tail call void @_Z11luaM_toobigP9lua_State(ptr noundef nonnull %0) #10
  unreachable

38:                                               ; preds = %31
  %39 = getelementptr inbounds nuw i8, ptr %1, i64 12
  %40 = load i32, ptr %39, align 4, !tbaa !16
  %41 = icmp slt i32 %40, 0
  br i1 %41, label %42, label %44

42:                                               ; preds = %38
  %43 = sub nsw i32 0, %40
  br label %46

44:                                               ; preds = %38
  %45 = load i32, ptr %27, align 8, !tbaa !9
  br label %46

46:                                               ; preds = %44, %42
  %47 = phi i32 [ %43, %42 ], [ %45, %44 ]
  %48 = sub nsw i32 0, %47
  store i32 %48, ptr %26, align 4, !tbaa !16
  br label %49

49:                                               ; preds = %46, %31
  %50 = load i32, ptr %27, align 8, !tbaa !9
  store i32 %50, ptr %21, align 8, !tbaa !9
  %51 = getelementptr inbounds nuw i8, ptr %1, i64 24
  %52 = load ptr, ptr %51, align 8, !tbaa !20
  %53 = sext i32 %50 to i64
  %54 = shl nsw i64 %53, 4
  tail call void @llvm.memcpy.p0.p0.i64(ptr align 8 %34, ptr align 8 %52, i64 %54, i1 false)
  br label %55

55:                                               ; preds = %49, %2
  %56 = getelementptr inbounds nuw i8, ptr %1, i64 32
  %57 = load ptr, ptr %56, align 8, !tbaa !17
  %.not56 = icmp eq ptr %57, @luaH_dummynode
  br i1 %.not56, label %75, label %58

58:                                               ; preds = %55
  %59 = getelementptr inbounds nuw i8, ptr %1, i64 6
  %60 = load i8, ptr %59, align 2, !tbaa !22
  %.not57 = icmp eq i8 %60, 31
  br i1 %.not57, label %74, label %61

61:                                               ; preds = %58
  %62 = zext nneg i8 %60 to i32
  %63 = shl nuw i32 1, %62
  %64 = sext i32 %63 to i64
  %65 = shl nuw nsw i64 %64, 5
  %66 = load i8, ptr %13, align 2, !tbaa !29
  %67 = tail call noundef ptr @_Z9luaM_new_P9lua_Statemh(ptr noundef nonnull %0, i64 noundef %65, i8 noundef zeroext %66)
  store ptr %67, ptr %25, align 8, !tbaa !17
  %68 = load i8, ptr %59, align 2, !tbaa !22
  store i8 %68, ptr %22, align 2, !tbaa !22
  %69 = getelementptr inbounds nuw i8, ptr %1, i64 7
  %70 = load i8, ptr %69, align 1, !tbaa !32
  store i8 %70, ptr %23, align 1, !tbaa !32
  %71 = load ptr, ptr %56, align 8, !tbaa !17
  tail call void @llvm.memcpy.p0.p0.i64(ptr noundef nonnull align 8 dereferenceable(1) %67, ptr noundef nonnull align 8 dereferenceable(1) %71, i64 %65, i1 false)
  %72 = getelementptr inbounds nuw i8, ptr %1, i64 12
  %73 = load i32, ptr %72, align 4, !tbaa !16
  store i32 %73, ptr %26, align 4, !tbaa !16
  br label %75

74:                                               ; preds = %58
  tail call void @_Z11luaM_toobigP9lua_State(ptr noundef nonnull %0) #10
  unreachable

75:                                               ; preds = %61, %55
  ret ptr %5
}